target datalayout = "e-m:e-p270:32:32-p271:32:32-p272:64:64-i64:64-i128:128-f80:128-n8:16:32:64-S128"
target triple = "x86_64-pc-linux-gnu"

%struct.pcre2_memctl = type { ptr, ptr, ptr }
%struct.pcre2_real_code_8 = type { %struct.pcre2_memctl, ptr, ptr, [32 x i8], i64, i32, i32, i32, i32, i32, i32, i32, i32, i32, i32, i16, i16, i16, i16, i16, i16, i16, i16 }

; Function Attrs: nounwind uwtable
define ptr @php_pcre2_code_copy(ptr noundef %0) #0 {
  %2 = alloca ptr, align 8
  %3 = alloca ptr, align 8
  %4 = alloca ptr, align 8
  %5 = alloca ptr, align 8
  store ptr %0, ptr %3, align 8
  %6 = load ptr, ptr %3, align 8
  %7 = icmp eq ptr %6, null
  br i1 %7, label %8, label %9

8:                                                ; preds = %1
  store ptr null, ptr %2, align 8
  br label %48

9:                                                ; preds = %1
  %10 = load ptr, ptr %3, align 8
  %11 = getelementptr inbounds %struct.pcre2_real_code_8, ptr %10, i32 0, i32 0
  %12 = getelementptr inbounds %struct.pcre2_memctl, ptr %11, i32 0, i32 0
  %13 = load ptr, ptr %12, align 8
  %14 = load ptr, ptr %3, align 8
  %15 = getelementptr inbounds %struct.pcre2_real_code_8, ptr %14, i32 0, i32 4
  %16 = load i64, ptr %15, align 8
  %17 = load ptr, ptr %3, align 8
  %18 = getelementptr inbounds %struct.pcre2_real_code_8, ptr %17, i32 0, i32 0
  %19 = getelementptr inbounds %struct.pcre2_memctl, ptr %18, i32 0, i32 2
  %20 = load ptr, ptr %19, align 8
  %21 = call ptr %13(i64 noundef %16, ptr noundef %20)
  store ptr %21, ptr %5, align 8
  %22 = load ptr, ptr %5, align 8
  %23 = icmp eq ptr %22, null
  br i1 %23, label %24, label %25

24:                                               ; preds = %9
  store ptr null, ptr %2, align 8
  br label %48

25:                                               ; preds = %9
  %26 = load ptr, ptr %5, align 8
  %27 = load ptr, ptr %3, align 8
  %28 = load ptr, ptr %3, align 8
  %29 = getelementptr inbounds %struct.pcre2_real_code_8, ptr %28, i32 0, i32 4
  %30 = load i64, ptr %29, align 8
  call void @llvm.memcpy.p0.p0.i64(ptr align 8 %26, ptr align 8 %27, i64 %30, i1 false)
  %31 = load ptr, ptr %5, align 8
  %32 = getelementptr inbounds %struct.pcre2_real_code_8, ptr %31, i32 0, i32 2
  store ptr null, ptr %32, align 8
  %33 = load ptr, ptr %3, align 8
  %34 = getelementptr inbounds %struct.pcre2_real_code_8, ptr %33, i32 0, i32 9
  %35 = load i32, ptr %34, align 8
  %36 = and i32 %35, 262144
  %37 = icmp ne i32 %36, 0
  br i1 %37, label %38, label %46

38:                                               ; preds = %25
  %39 = load ptr, ptr %3, align 8
  %40 = getelementptr inbounds %struct.pcre2_real_code_8, ptr %39, i32 0, i32 1
  %41 = load ptr, ptr %40, align 8
  %42 = getelementptr inbounds i8, ptr %41, i64 1088
  store ptr %42, ptr %4, align 8
  %43 = load ptr, ptr %4, align 8
  %44 = load i64, ptr %43, align 8
  %45 = add i64 %44, 1
  store i64 %45, ptr %43, align 8
  br label %46

46:                                               ; preds = %38, %25
  %47 = load ptr, ptr %5, align 8
  store ptr %47, ptr %2, align 8
  br label %48

48:                                               ; preds = %46, %24, %8
  %49 = load ptr, ptr %2, align 8
  ret ptr %49
}