; Function Attrs: nounwind uwtable
define ptr @php_pcre2_code_copy(ptr noundef readonly %0) local_unnamed_addr #0 {
  %2 = icmp eq ptr %0, null
  br i1 %2, label %23, label %3

3:                                                ; preds = %1
  %4 = load ptr, ptr %0, align 8
  %5 = getelementptr inbounds i8, ptr %0, i64 72
  %6 = load i64, ptr %5, align 8
  %7 = getelementptr inbounds i8, ptr %0, i64 16
  %8 = load ptr, ptr %7, align 8
  %9 = tail call ptr %4(i64 noundef %6, ptr noundef %8) #16
  %10 = icmp eq ptr %9, null
  br i1 %10, label %23, label %11

11:                                               ; preds = %3
  %12 = load i64, ptr %5, align 8
  tail call void @llvm.memcpy.p0.p0.i64(ptr nonnull align 8 %9, ptr nonnull align 8 %0, i64 %12, i1 false)
  %13 = getelementptr inbounds i8, ptr %9, i64 32
  store ptr null, ptr %13, align 8
  %14 = getelementptr inbounds i8, ptr %0, i64 96
  %15 = load i32, ptr %14, align 8
  %16 = and i32 %15, 262144
  %.not = icmp eq i32 %16, 0
  br i1 %.not, label %23, label %17

17:                                               ; preds = %11
  %18 = getelementptr inbounds i8, ptr %0, i64 24
  %19 = load ptr, ptr %18, align 8
  %20 = getelementptr inbounds i8, ptr %19, i64 1088
  %21 = load i64, ptr %20, align 8
  %22 = add i64 %21, 1
  store i64 %22, ptr %20, align 8
  br label %23

23:                                               ; preds = %11, %17, %3, %1
  %.0 = phi ptr [ null, %1 ], [ null, %3 ], [ %9, %17 ], [ %9, %11 ]
  ret ptr %.0
}